; Function Attrs: mustprogress uwtable
define hidden void @_ZN3sat3big17done_adding_edgesEv(ptr noundef nonnull align 8 dereferenceable(80) %this) local_unnamed_addr #4 align 2 {
entry:
  %m_dag = getelementptr inbounds i8, ptr %this, i64 16
  %0 = load ptr, ptr %m_dag, align 8
  %cmp.i.i = icmp eq ptr %0, null
  br i1 %cmp.i.i, label %for.end, label %_ZN6vectorI7svectorIN3sat7literalEjELb1EjE3endEv.exit

_ZN6vectorI7svectorIN3sat7literalEjELb1EjE3endEv.exit: ; preds = %entry
  %arrayidx.i.i = getelementptr inbounds i8, ptr %0, i64 -4
  %1 = load i32, ptr %arrayidx.i.i, align 4
  %2 = zext i32 %1 to i64
  %add.ptr.i = getelementptr inbounds %class.svector.3, ptr %0, i64 %2
  %cmp.not9 = icmp eq i32 %1, 0
  br i1 %cmp.not9, label %for.end, label %for.body

for.body:                                         ; preds = %_ZN6vectorI7svectorIN3sat7literalEjELb1EjE3endEv.exit, %_Z7shuffleIN3sat7literalEEvjPT_R10random_gen.exit
  %__begin1.010 = phi ptr [ %incdec.ptr, %_Z7shuffleIN3sat7literalEEvjPT_R10random_gen.exit ], [ %0, %_ZN6vectorI7svectorIN3sat7literalEjELb1EjE3endEv.exit ]
  %3 = load ptr, ptr %__begin1.010, align 8
  %cmp.i = icmp eq ptr %3, null
  br i1 %cmp.i, label %_Z7shuffleIN3sat7literalEEvjPT_R10random_gen.exit, label %_ZNK6vectorIN3sat7literalELb0EjE4sizeEv.exit

_ZNK6vectorIN3sat7literalELb0EjE4sizeEv.exit:     ; preds = %for.body
  %arrayidx.i = getelementptr inbounds i8, ptr %3, i64 -4
  %4 = load i32, ptr %arrayidx.i, align 4
  %5 = load ptr, ptr %this, align 8
  %cmp5.i = icmp sgt i32 %4, 1
  br i1 %cmp5.i, label %while.body.preheader.i, label %_Z7shuffleIN3sat7literalEEvjPT_R10random_gen.exit

while.body.preheader.i:                           ; preds = %_ZNK6vectorIN3sat7literalELb0EjE4sizeEv.exit
  %6 = zext nneg i32 %4 to i64
  br label %while.body.i

while.body.i:                                     ; preds = %while.body.i, %while.body.preheader.i
  %indvars.iv.i = phi i64 [ %6, %while.body.preheader.i ], [ %indvars.iv.next.i, %while.body.i ]
  %indvars.iv.next.i = add nsw i64 %indvars.iv.i, -1
  %7 = load i32, ptr %5, align 4
  %mul.i.i = mul i32 %7, 214013
  %add.i.i = add i32 %mul.i.i, 2531011
  store i32 %add.i.i, ptr %5, align 4
  %shr.i.i = lshr i32 %add.i.i, 16
  %and.i.i = and i32 %shr.i.i, 32767
  %8 = trunc i64 %indvars.iv.i to i32
  %rem4.i = urem i32 %and.i.i, %8
  %arrayidx.i5 = getelementptr inbounds %"class.sat::literal", ptr %3, i64 %indvars.iv.next.i
  %idxprom1.i = zext nneg i32 %rem4.i to i64
  %arrayidx2.i = getelementptr inbounds %"class.sat::literal", ptr %3, i64 %idxprom1.i
  %__tmp.sroa.0.0.copyload.i.i = load i32, ptr %arrayidx.i5, align 4
  %9 = load i32, ptr %arrayidx2.i, align 4
  store i32 %9, ptr %arrayidx.i5, align 4
  store i32 %__tmp.sroa.0.0.copyload.i.i, ptr %arrayidx2.i, align 4
  %cmp.i6 = icmp ugt i64 %indvars.iv.i, 2
  br i1 %cmp.i6, label %while.body.i, label %_Z7shuffleIN3sat7literalEEvjPT_R10random_gen.exit, !llvm.loop !7

_Z7shuffleIN3sat7literalEEvjPT_R10random_gen.exit: ; preds = %while.body.i, %for.body, %_ZNK6vectorIN3sat7literalELb0EjE4sizeEv.exit
  %incdec.ptr = getelementptr inbounds i8, ptr %__begin1.010, i64 8
  %cmp.not = icmp eq ptr %incdec.ptr, %add.ptr.i
  br i1 %cmp.not, label %for.end, label %for.body

for.end:                                          ; preds = %_Z7shuffleIN3sat7literalEEvjPT_R10random_gen.exit, %entry, %_ZN6vectorI7svectorIN3sat7literalEjELb1EjE3endEv.exit
  tail call void @_ZN3sat3big12init_dfs_numEv(ptr noundef nonnull align 8 dereferenceable(80) %this)
  ret void
}